; ModuleID = '60/581.c'
source_filename = "60/581.c"
target datalayout = "e-m:e-p270:32:32-p271:32:32-p272:64:64-i64:64-f80:128-n8:16:32:64-S128"
target triple = "x86_64-pc-linux-gnu"

@.str = private unnamed_addr constant [3 x i8] c"%d\00", align 1
@.str.1 = private unnamed_addr constant [6 x i8] c"empty\00", align 1
@.str.2 = private unnamed_addr constant [7 x i8] c"%d %d\0A\00", align 1

; Function Attrs: noinline nounwind uwtable
define dso_local i32 @ss(i32 %0) #0 {
  %2 = alloca i32, align 4
  %3 = alloca i32, align 4
  %4 = alloca i32, align 4
  store i32 %0, i32* %2, align 4
  store i32 2, i32* %3, align 4
  store i32 1, i32* %4, align 4
  br label %5

5:                                                ; preds = %14, %1
  %6 = load i32, i32* %3, align 4
  %7 = load i32, i32* %2, align 4
  %8 = icmp slt i32 %6, %7
  br i1 %8, label %9, label %12

9:                                                ; preds = %5
  %10 = load i32, i32* %4, align 4
  %11 = icmp ne i32 %10, 0
  br label %12

12:                                               ; preds = %9, %5
  %13 = phi i1 [ false, %5 ], [ %11, %9 ]
  br i1 %13, label %14, label %20

14:                                               ; preds = %12
  %15 = load i32, i32* %2, align 4
  %16 = load i32, i32* %3, align 4
  %17 = srem i32 %15, %16
  store i32 %17, i32* %4, align 4
  %18 = load i32, i32* %3, align 4
  %19 = add nsw i32 %18, 1
  store i32 %19, i32* %3, align 4
  br label %5

20:                                               ; preds = %12
  %21 = load i32, i32* %4, align 4
  ret i32 %21
}

; Function Attrs: noinline nounwind uwtable
define dso_local i32 @main() #0 {
  %1 = alloca i32, align 4
  %2 = alloca i32, align 4
  %3 = alloca i32, align 4
  store i32 0, i32* %1, align 4
  %4 = call i32 (i8*, ...) @__isoc99_scanf(i8* getelementptr inbounds ([3 x i8], [3 x i8]* @.str, i64 0, i64 0), i32* %2)
  store i32 3, i32* %3, align 4
  %5 = load i32, i32* %2, align 4
  %6 = icmp sle i32 %5, 4
  br i1 %6, label %7, label %9

7:                                                ; preds = %0
  %8 = call i32 (i8*, ...) @printf(i8* getelementptr inbounds ([6 x i8], [6 x i8]* @.str.1, i64 0, i64 0))
  br label %9

9:                                                ; preds = %7, %0
  br label %10

10:                                               ; preds = %29, %9
  %11 = load i32, i32* %3, align 4
  %12 = load i32, i32* %2, align 4
  %13 = sub nsw i32 %12, 2
  %14 = icmp sle i32 %11, %13
  br i1 %14, label %15, label %32

15:                                               ; preds = %10
  %16 = load i32, i32* %3, align 4
  %17 = call i32 @ss(i32 %16)
  %18 = icmp ne i32 %17, 0
  br i1 %18, label %19, label %29

19:                                               ; preds = %15
  %20 = load i32, i32* %3, align 4
  %21 = add nsw i32 %20, 2
  %22 = call i32 @ss(i32 %21)
  %23 = icmp ne i32 %22, 0
  br i1 %23, label %24, label %29

24:                                               ; preds = %19
  %25 = load i32, i32* %3, align 4
  %26 = load i32, i32* %3, align 4
  %27 = add nsw i32 %26, 2
  %28 = call i32 (i8*, ...) @printf(i8* getelementptr inbounds ([7 x i8], [7 x i8]* @.str.2, i64 0, i64 0), i32 %25, i32 %27)
  br label %29

29:                                               ; preds = %24, %19, %15
  %30 = load i32, i32* %3, align 4
  %31 = add nsw i32 %30, 1
  store i32 %31, i32* %3, align 4
  br label %10

32:                                               ; preds = %10
  %33 = call i32 @getchar()
  %34 = call i32 @getchar()
  %35 = call i32 @getchar()
  %36 = call i32 @getchar()
  %37 = call i32 @getchar()
  %38 = call i32 @getchar()
  %39 = call i32 @getchar()
  %40 = call i32 @getchar()
  %41 = call i32 @getchar()
  %42 = call i32 @getchar()
  %43 = call i32 @getchar()
  %44 = call i32 @getchar()
  %45 = call i32 @getchar()
  %46 = load i32, i32* %1, align 4
  ret i32 %46
}

declare dso_local i32 @__isoc99_scanf(i8*, ...) #1

declare dso_local i32 @printf(i8*, ...) #1

declare dso_local i32 @getchar() #1


!llvm.module.flags = !{!0}
!llvm.ident = !{!1}

!0 = !{i32 1, !"wchar_size", i32 4}
!1 = !{!"clang version 10.0.0-4ubuntu1 "}
